target datalayout = "e-m:e-p270:32:32-p271:32:32-p272:64:64-i64:64-i128:128-f80:128-n8:16:32:64-S128"
target triple = "x86_64-pc-linux-gnu"

%class.GrowableArrayBase = type { i32, i32 }
%class.GrowableArrayView.11 = type { %class.GrowableArrayBase, ptr }

@_ZN17ArchiveHeapWriter7_bufferE = hidden global ptr null, align 8
@_ZN17ArchiveHeapWriter12_buffer_usedE = hidden global i64 0, align 8
@g_assert_poison = external global ptr, align 8
@.str = private unnamed_addr constant [44 x i8] c"src/hotspot/share/cds/archiveHeapWriter.cpp\00", align 1
@.str.8 = private unnamed_addr constant [40 x i8] c"guarantee(min_bytes <= max_jint) failed\00", align 1
@.str.9 = private unnamed_addr constant [50 x i8] c"we dont support archiving more than 2G of objects\00", align 1

; Function Attrs: mustprogress nounwind uwtable
define linkonce_odr hidden noundef i32 @_ZN21CountLeadingZerosImplIiLm4EE4doitEi(i32 noundef %0) #1 comdat align 2 {
  %2 = alloca i32, align 4
  store i32 %0, ptr %2, align 4
  %3 = load i32, ptr %2, align 4
  %4 = call i32 @llvm.ctlz.i32(i32 %3, i1 true)
  ret i32 %4
}

; Function Attrs: mustprogress nounwind uwtable
define linkonce_odr hidden noundef i32 @_Z19count_leading_zerosIiEjT_(i32 noundef %0) #1 comdat {
  %2 = alloca i32, align 4
  store i32 %0, ptr %2, align 4
  %3 = load i32, ptr %2, align 4
  %4 = call noundef i32 @_ZN21CountLeadingZerosImplIiLm4EE4doitEi(i32 noundef %3)
  ret i32 %4
}

; Function Attrs: mustprogress nounwind uwtable
define linkonce_odr hidden noundef i32 @_Z5log2iIiTnNSt9enable_ifIXcvbsr3std11is_integralIT_EE5valueEiE4typeELi0EEiS1_(i32 noundef %0) #1 comdat {
  %2 = alloca i32, align 4
  %3 = alloca i32, align 4
  store i32 %0, ptr %2, align 4
  store i32 32, ptr %3, align 4
  %4 = load i32, ptr %2, align 4
  %5 = call noundef i32 @_Z19count_leading_zerosIiEjT_(i32 noundef %4)
  %6 = sub i32 32, %5
  %7 = sub i32 %6, 1
  ret i32 %7
}

; Function Attrs: mustprogress nounwind uwtable
define linkonce_odr hidden noundef zeroext i1 @_Z13is_power_of_2IiTnNSt9enable_ifIXcvbsr3std11is_integralIT_EE5valueEiE4typeELi0EEbS1_(i32 noundef %0) #1 comdat {
  %2 = alloca i32, align 4
  store i32 %0, ptr %2, align 4
  %3 = load i32, ptr %2, align 4
  %4 = icmp sgt i32 %3, 0
  br i1 %4, label %5, label %11

5:                                                ; preds = %1
  %6 = load i32, ptr %2, align 4
  %7 = load i32, ptr %2, align 4
  %8 = sub nsw i32 %7, 1
  %9 = and i32 %6, %8
  %10 = icmp eq i32 %9, 0
  br label %11

11:                                               ; preds = %5, %1
  %12 = phi i1 [ false, %1 ], [ %10, %5 ]
  ret i1 %12
}

; Function Attrs: mustprogress nounwind uwtable
define linkonce_odr hidden void @_ZN18GrowableArrayCHeapIhL8MEMFLAGS13EE10deallocateEPh(ptr noundef nonnull align 8 dereferenceable(16) %0, ptr noundef %1) #1 comdat align 2 {
  %3 = alloca ptr, align 8
  %4 = alloca ptr, align 8
  store ptr %0, ptr %3, align 8
  store ptr %1, ptr %4, align 8
  %5 = load ptr, ptr %4, align 8
  call void @_ZN27GrowableArrayCHeapAllocator10deallocateEPv(ptr noundef %5)
  ret void
}

; Function Attrs: mustprogress nounwind uwtable
define linkonce_odr hidden noundef ptr @_ZN18GrowableArrayCHeapIhL8MEMFLAGS13EE8allocateEv(ptr noundef nonnull align 8 dereferenceable(16) %0) #1 comdat align 2 {
  %2 = alloca ptr, align 8
  store ptr %0, ptr %2, align 8
  %3 = load ptr, ptr %2, align 8
  %4 = getelementptr inbounds %class.GrowableArrayBase, ptr %3, i32 0, i32 1
  %5 = load i32, ptr %4, align 4
  %6 = call noundef ptr @_ZN18GrowableArrayCHeapIhL8MEMFLAGS13EE8allocateEiS0_(i32 noundef %5, i8 noundef zeroext 13)
  ret ptr %6
}

; Function Attrs: mustprogress nounwind uwtable
define linkonce_odr hidden noundef i32 @_Z19round_up_power_of_2IiTnNSt9enable_ifIXcvbsr3std11is_integralIT_EE5valueEiE4typeELi0EES1_S1_(i32 noundef %0) #1 comdat {
  %2 = alloca i32, align 4
  %3 = alloca i32, align 4
  store i32 %0, ptr %3, align 4
  %4 = load i32, ptr %3, align 4
  %5 = call noundef zeroext i1 @_Z13is_power_of_2IiTnNSt9enable_ifIXcvbsr3std11is_integralIT_EE5valueEiE4typeELi0EEbS1_(i32 noundef %4)
  br i1 %5, label %6, label %8

6:                                                ; preds = %1
  %7 = load i32, ptr %3, align 4
  store i32 %7, ptr %2, align 4
  br label %13

8:                                                ; preds = %1
  %9 = load i32, ptr %3, align 4
  %10 = call noundef i32 @_Z5log2iIiTnNSt9enable_ifIXcvbsr3std11is_integralIT_EE5valueEiE4typeELi0EEiS1_(i32 noundef %9)
  %11 = add nsw i32 %10, 1
  %12 = shl i32 1, %11
  store i32 %12, ptr %2, align 4
  br label %13

13:                                               ; preds = %8, %6
  %14 = load i32, ptr %2, align 4
  ret i32 %14
}

; Function Attrs: mustprogress nounwind uwtable
define linkonce_odr hidden void @_ZN26GrowableArrayWithAllocatorIh18GrowableArrayCHeapIhL8MEMFLAGS13EEE9expand_toEi(ptr noundef nonnull align 8 dereferenceable(16) %0, i32 noundef %1) #1 comdat align 2 {
  %3 = alloca ptr, align 8
  %4 = alloca i32, align 4
  %5 = alloca i32, align 4
  %6 = alloca ptr, align 8
  %7 = alloca i32, align 4
  store ptr %0, ptr %3, align 8
  store i32 %1, ptr %4, align 4
  %8 = load ptr, ptr %3, align 8
  %9 = getelementptr inbounds %class.GrowableArrayBase, ptr %8, i32 0, i32 1
  %10 = load i32, ptr %9, align 4
  store i32 %10, ptr %5, align 4
  %11 = load i32, ptr %4, align 4
  %12 = getelementptr inbounds %class.GrowableArrayBase, ptr %8, i32 0, i32 1
  store i32 %11, ptr %12, align 4
  %13 = call noundef ptr @_ZN18GrowableArrayCHeapIhL8MEMFLAGS13EE8allocateEv(ptr noundef nonnull align 8 dereferenceable(16) %8)
  store ptr %13, ptr %6, align 8
  store i32 0, ptr %7, align 4
  br label %14

14:                                               ; preds = %30, %2
  %15 = load i32, ptr %7, align 4
  %16 = getelementptr inbounds %class.GrowableArrayBase, ptr %8, i32 0, i32 0
  %17 = load i32, ptr %16, align 8
  %18 = icmp slt i32 %15, %17
  br i1 %18, label %19, label %33

19:                                               ; preds = %14
  %20 = load ptr, ptr %6, align 8
  %21 = load i32, ptr %7, align 4
  %22 = sext i32 %21 to i64
  %23 = getelementptr inbounds i8, ptr %20, i64 %22
  %24 = getelementptr inbounds %class.GrowableArrayView.11, ptr %8, i32 0, i32 1
  %25 = load ptr, ptr %24, align 8
  %26 = load i32, ptr %7, align 4
  %27 = sext i32 %26 to i64
  %28 = getelementptr inbounds i8, ptr %25, i64 %27
  %29 = load i8, ptr %28, align 1
  store i8 %29, ptr %23, align 1
  br label %30

30:                                               ; preds = %19
  %31 = load i32, ptr %7, align 4
  %32 = add nsw i32 %31, 1
  store i32 %32, ptr %7, align 4
  br label %14, !llvm.loop !29

33:                                               ; preds = %14
  br label %34

34:                                               ; preds = %44, %33
  %35 = load i32, ptr %7, align 4
  %36 = getelementptr inbounds %class.GrowableArrayBase, ptr %8, i32 0, i32 1
  %37 = load i32, ptr %36, align 4
  %38 = icmp slt i32 %35, %37
  br i1 %38, label %39, label %47

39:                                               ; preds = %34
  %40 = load ptr, ptr %6, align 8
  %41 = load i32, ptr %7, align 4
  %42 = sext i32 %41 to i64
  %43 = getelementptr inbounds i8, ptr %40, i64 %42
  store i8 0, ptr %43, align 1
  br label %44

44:                                               ; preds = %39
  %45 = load i32, ptr %7, align 4
  %46 = add nsw i32 %45, 1
  store i32 %46, ptr %7, align 4
  br label %34, !llvm.loop !30

47:                                               ; preds = %34
  store i32 0, ptr %7, align 4
  br label %48

48:                                               ; preds = %53, %47
  %49 = load i32, ptr %7, align 4
  %50 = load i32, ptr %5, align 4
  %51 = icmp slt i32 %49, %50
  br i1 %51, label %52, label %56

52:                                               ; preds = %48
  br label %53

53:                                               ; preds = %52
  %54 = load i32, ptr %7, align 4
  %55 = add nsw i32 %54, 1
  store i32 %55, ptr %7, align 4
  br label %48, !llvm.loop !31

56:                                               ; preds = %48
  %57 = getelementptr inbounds %class.GrowableArrayView.11, ptr %8, i32 0, i32 1
  %58 = load ptr, ptr %57, align 8
  %59 = icmp ne ptr %58, null
  br i1 %59, label %60, label %63

60:                                               ; preds = %56
  %61 = getelementptr inbounds %class.GrowableArrayView.11, ptr %8, i32 0, i32 1
  %62 = load ptr, ptr %61, align 8
  call void @_ZN18GrowableArrayCHeapIhL8MEMFLAGS13EE10deallocateEPh(ptr noundef nonnull align 8 dereferenceable(16) %8, ptr noundef %62)
  br label %63

63:                                               ; preds = %60, %56
  %64 = load ptr, ptr %6, align 8
  %65 = getelementptr inbounds %class.GrowableArrayView.11, ptr %8, i32 0, i32 1
  store ptr %64, ptr %65, align 8
  ret void
}

; Function Attrs: mustprogress nounwind uwtable
define linkonce_odr hidden noundef i32 @_Z15next_power_of_2IiTnNSt9enable_ifIXcvbsr3std11is_integralIT_EE5valueEiE4typeELi0EES1_S1_(i32 noundef %0) #1 comdat {
  %2 = alloca i32, align 4
  store i32 %0, ptr %2, align 4
  %3 = load i32, ptr %2, align 4
  %4 = add nsw i32 %3, 1
  %5 = call noundef i32 @_Z19round_up_power_of_2IiTnNSt9enable_ifIXcvbsr3std11is_integralIT_EE5valueEiE4typeELi0EES1_S1_(i32 noundef %4)
  ret i32 %5
}

; Function Attrs: mustprogress nounwind uwtable
define linkonce_odr hidden void @_ZN17GrowableArrayBaseC2Eii(ptr noundef nonnull align 4 dereferenceable(8) %0, i32 noundef %1, i32 noundef %2) unnamed_addr #1 comdat align 2 {
  %4 = alloca ptr, align 8
  %5 = alloca i32, align 4
  %6 = alloca i32, align 4
  store ptr %0, ptr %4, align 8
  store i32 %1, ptr %5, align 4
  store i32 %2, ptr %6, align 4
  %7 = load ptr, ptr %4, align 8
  %8 = getelementptr inbounds %class.GrowableArrayBase, ptr %7, i32 0, i32 0
  %9 = load i32, ptr %6, align 4
  store i32 %9, ptr %8, align 4
  %10 = getelementptr inbounds %class.GrowableArrayBase, ptr %7, i32 0, i32 1
  %11 = load i32, ptr %5, align 4
  store i32 %11, ptr %10, align 4
  ret void
}

; Function Attrs: mustprogress nounwind uwtable
define linkonce_odr hidden void @_ZN26GrowableArrayWithAllocatorIh18GrowableArrayCHeapIhL8MEMFLAGS13EEE4growEi(ptr noundef nonnull align 8 dereferenceable(16) %0, i32 noundef %1) #1 comdat align 2 {
  %3 = alloca ptr, align 8
  %4 = alloca i32, align 4
  store ptr %0, ptr %3, align 8
  store i32 %1, ptr %4, align 4
  %5 = load ptr, ptr %3, align 8
  %6 = load i32, ptr %4, align 4
  %7 = call noundef i32 @_Z15next_power_of_2IiTnNSt9enable_ifIXcvbsr3std11is_integralIT_EE5valueEiE4typeELi0EES1_S1_(i32 noundef %6)
  call void @_ZN26GrowableArrayWithAllocatorIh18GrowableArrayCHeapIhL8MEMFLAGS13EEE9expand_toEi(ptr noundef nonnull align 8 dereferenceable(16) %5, i32 noundef %7)
  ret void
}

; Function Attrs: mustprogress nounwind uwtable
define linkonce_odr hidden void @_ZN17GrowableArrayViewIhEC2EPhii(ptr noundef nonnull align 8 dereferenceable(16) %0, ptr noundef %1, i32 noundef %2, i32 noundef %3) unnamed_addr #1 comdat align 2 {
  %5 = alloca ptr, align 8
  %6 = alloca ptr, align 8
  %7 = alloca i32, align 4
  %8 = alloca i32, align 4
  store ptr %0, ptr %5, align 8
  store ptr %1, ptr %6, align 8
  store i32 %2, ptr %7, align 4
  store i32 %3, ptr %8, align 4
  %9 = load ptr, ptr %5, align 8
  %10 = load i32, ptr %7, align 4
  %11 = load i32, ptr %8, align 4
  call void @_ZN17GrowableArrayBaseC2Eii(ptr noundef nonnull align 4 dereferenceable(8) %9, i32 noundef %10, i32 noundef %11)
  %12 = getelementptr inbounds %class.GrowableArrayView.11, ptr %9, i32 0, i32 1
  %13 = load ptr, ptr %6, align 8
  store ptr %13, ptr %12, align 8
  ret void
}

; Function Attrs: mustprogress nounwind uwtable
define linkonce_odr hidden noundef nonnull align 1 dereferenceable(1) ptr @_ZN26GrowableArrayWithAllocatorIh18GrowableArrayCHeapIhL8MEMFLAGS13EEE7at_growEiRKh(ptr noundef nonnull align 8 dereferenceable(16) %0, i32 noundef %1, ptr noundef nonnull align 1 dereferenceable(1) %2) #1 comdat align 2 {
  %4 = alloca ptr, align 8
  %5 = alloca i32, align 4
  %6 = alloca ptr, align 8
  %7 = alloca i32, align 4
  store ptr %0, ptr %4, align 8
  store i32 %1, ptr %5, align 4
  store ptr %2, ptr %6, align 8
  %8 = load ptr, ptr %4, align 8
  %9 = load i32, ptr %5, align 4
  %10 = getelementptr inbounds %class.GrowableArrayBase, ptr %8, i32 0, i32 0
  %11 = load i32, ptr %10, align 8
  %12 = icmp sge i32 %9, %11
  br i1 %12, label %13, label %42

13:                                               ; preds = %3
  %14 = load i32, ptr %5, align 4
  %15 = getelementptr inbounds %class.GrowableArrayBase, ptr %8, i32 0, i32 1
  %16 = load i32, ptr %15, align 4
  %17 = icmp sge i32 %14, %16
  br i1 %17, label %18, label %20

18:                                               ; preds = %13
  %19 = load i32, ptr %5, align 4
  call void @_ZN26GrowableArrayWithAllocatorIh18GrowableArrayCHeapIhL8MEMFLAGS13EEE4growEi(ptr noundef nonnull align 8 dereferenceable(16) %8, i32 noundef %19)
  br label %20

20:                                               ; preds = %18, %13
  %21 = getelementptr inbounds %class.GrowableArrayBase, ptr %8, i32 0, i32 0
  %22 = load i32, ptr %21, align 8
  store i32 %22, ptr %7, align 4
  br label %23

23:                                               ; preds = %35, %20
  %24 = load i32, ptr %7, align 4
  %25 = load i32, ptr %5, align 4
  %26 = icmp sle i32 %24, %25
  br i1 %26, label %27, label %38

27:                                               ; preds = %23
  %28 = load ptr, ptr %6, align 8
  %29 = load i8, ptr %28, align 1
  %30 = getelementptr inbounds %class.GrowableArrayView.11, ptr %8, i32 0, i32 1
  %31 = load ptr, ptr %30, align 8
  %32 = load i32, ptr %7, align 4
  %33 = sext i32 %32 to i64
  %34 = getelementptr inbounds i8, ptr %31, i64 %33
  store i8 %29, ptr %34, align 1
  br label %35

35:                                               ; preds = %27
  %36 = load i32, ptr %7, align 4
  %37 = add nsw i32 %36, 1
  store i32 %37, ptr %7, align 4
  br label %23, !llvm.loop !10

38:                                               ; preds = %23
  %39 = load i32, ptr %5, align 4
  %40 = add nsw i32 %39, 1
  %41 = getelementptr inbounds %class.GrowableArrayBase, ptr %8, i32 0, i32 0
  store i32 %40, ptr %41, align 8
  br label %42

42:                                               ; preds = %38, %3
  %43 = getelementptr inbounds %class.GrowableArrayView.11, ptr %8, i32 0, i32 1
  %44 = load ptr, ptr %43, align 8
  %45 = load i32, ptr %5, align 4
  %46 = sext i32 %45 to i64
  %47 = getelementptr inbounds i8, ptr %44, i64 %46
  ret ptr %47
}

; Function Attrs: mustprogress nounwind uwtable
define linkonce_odr hidden noundef i32 @_ZN17ArchiveHeapWriter14to_array_indexEm(i64 noundef %0) #1 comdat align 2 {
  %2 = alloca i64, align 8
  store i64 %0, ptr %2, align 8
  %3 = load i64, ptr %2, align 8
  %4 = trunc i64 %3 to i32
  ret i32 %4
}

; Function Attrs: mustprogress nounwind uwtable
define linkonce_odr hidden void @_ZN26GrowableArrayWithAllocatorIh18GrowableArrayCHeapIhL8MEMFLAGS13EEEC2EPhi(ptr noundef nonnull align 8 dereferenceable(16) %0, ptr noundef %1, i32 noundef %2) unnamed_addr #1 comdat align 2 {
  %4 = alloca ptr, align 8
  %5 = alloca ptr, align 8
  %6 = alloca i32, align 4
  %7 = alloca i32, align 4
  store ptr %0, ptr %4, align 8
  store ptr %1, ptr %5, align 8
  store i32 %2, ptr %6, align 4
  %8 = load ptr, ptr %4, align 8
  %9 = load ptr, ptr %5, align 8
  %10 = load i32, ptr %6, align 4
  call void @_ZN17GrowableArrayViewIhEC2EPhii(ptr noundef nonnull align 8 dereferenceable(16) %8, ptr noundef %9, i32 noundef %10, i32 noundef 0)
  store i32 0, ptr %7, align 4
  br label %11

11:                                               ; preds = %20, %3
  %12 = load i32, ptr %7, align 4
  %13 = load i32, ptr %6, align 4
  %14 = icmp slt i32 %12, %13
  br i1 %14, label %15, label %23

15:                                               ; preds = %11
  %16 = load ptr, ptr %5, align 8
  %17 = load i32, ptr %7, align 4
  %18 = sext i32 %17 to i64
  %19 = getelementptr inbounds i8, ptr %16, i64 %18
  store i8 0, ptr %19, align 1
  br label %20

20:                                               ; preds = %15
  %21 = load i32, ptr %7, align 4
  %22 = add nsw i32 %21, 1
  store i32 %22, ptr %7, align 4
  br label %11, !llvm.loop !28

23:                                               ; preds = %11
  ret void
}

; Function Attrs: mustprogress nounwind uwtable
define linkonce_odr hidden noundef ptr @_ZN18GrowableArrayCHeapIhL8MEMFLAGS13EE8allocateEiS0_(i32 noundef %0, i8 noundef zeroext %1) #1 comdat align 2 {
  %3 = alloca ptr, align 8
  %4 = alloca i32, align 4
  %5 = alloca i8, align 1
  store i32 %0, ptr %4, align 4
  store i8 %1, ptr %5, align 1
  %6 = load i32, ptr %4, align 4
  %7 = icmp eq i32 %6, 0
  br i1 %7, label %8, label %9

8:                                                ; preds = %2
  store ptr null, ptr %3, align 8
  br label %13

9:                                                ; preds = %2
  %10 = load i32, ptr %4, align 4
  %11 = load i8, ptr %5, align 1
  %12 = call noundef ptr @_ZN27GrowableArrayCHeapAllocator8allocateEii8MEMFLAGS(i32 noundef %10, i32 noundef 1, i8 noundef zeroext %11)
  store ptr %12, ptr %3, align 8
  br label %13

13:                                               ; preds = %9, %8
  %14 = load ptr, ptr %3, align 8
  ret ptr %14
}

; Function Attrs: mustprogress nounwind uwtable
define hidden void @_ZN17ArchiveHeapWriter19ensure_buffer_spaceEm(i64 noundef %0) #1 align 2 {
  %2 = alloca i64, align 8
  %3 = alloca i8, align 1
  store i64 %0, ptr %2, align 8
  br label %4

4:                                                ; preds = %1
  %5 = load i64, ptr %2, align 8
  %6 = icmp ule i64 %5, 2147483647
  br i1 %6, label %9, label %7

7:                                                ; preds = %4
  %8 = load ptr, ptr @g_assert_poison, align 8
  store i8 88, ptr %8, align 1
  call void (ptr, i32, ptr, ptr, ...) @_Z15report_vm_errorPKciS0_S0_z(ptr noundef @.str, i32 noundef 185, ptr noundef @.str.8, ptr noundef @.str.9) #10
  unreachable

9:                                                ; preds = %4
  br label %10

10:                                               ; preds = %9
  %11 = load ptr, ptr @_ZN17ArchiveHeapWriter7_bufferE, align 8
  %12 = load i64, ptr %2, align 8
  %13 = call noundef i32 @_ZN17ArchiveHeapWriter14to_array_indexEm(i64 noundef %12)
  store i8 0, ptr %3, align 1
  %14 = call noundef nonnull align 1 dereferenceable(1) ptr @_ZN26GrowableArrayWithAllocatorIh18GrowableArrayCHeapIhL8MEMFLAGS13EEE7at_growEiRKh(ptr noundef nonnull align 8 dereferenceable(16) %11, i32 noundef %13, ptr noundef nonnull align 1 dereferenceable(1) %3)
  ret void
}

; Function Attrs: mustprogress nounwind uwtable
define linkonce_odr hidden void @_ZN18GrowableArrayCHeapIhL8MEMFLAGS13EEC2Ei(ptr noundef nonnull align 8 dereferenceable(16) %0, i32 noundef %1) unnamed_addr #1 comdat align 2 {
  %3 = alloca ptr, align 8
  %4 = alloca i32, align 4
  store ptr %0, ptr %3, align 8
  store i32 %1, ptr %4, align 4
  %5 = load ptr, ptr %3, align 8
  %6 = load i32, ptr %4, align 4
  %7 = call noundef ptr @_ZN18GrowableArrayCHeapIhL8MEMFLAGS13EE8allocateEiS0_(i32 noundef %6, i8 noundef zeroext 13)
  %8 = load i32, ptr %4, align 4
  call void @_ZN26GrowableArrayWithAllocatorIh18GrowableArrayCHeapIhL8MEMFLAGS13EEEC2EPhi(ptr noundef nonnull align 8 dereferenceable(16) %5, ptr noundef %7, i32 noundef %8)
  ret void
}

; Function Attrs: mustprogress nounwind uwtable
define linkonce_odr hidden noundef ptr @_ZN18GrowableArrayCHeapIhL8MEMFLAGS13EEnwEm(i64 noundef %0) #1 comdat align 2 {
  %2 = alloca i64, align 8
  store i64 %0, ptr %2, align 8
  %3 = load i64, ptr %2, align 8
  %4 = call noundef ptr @_ZN6AnyObjnwEm8MEMFLAGS(i64 noundef %3, i8 noundef zeroext 13) #11
  ret ptr %4
}

; Function Attrs: mustprogress nounwind uwtable
define hidden void @_ZN17ArchiveHeapWriter15allocate_bufferEv() #1 align 2 {
  %1 = alloca i32, align 4
  store i32 100000, ptr %1, align 4
  %2 = call noundef ptr @_ZN18GrowableArrayCHeapIhL8MEMFLAGS13EEnwEm(i64 noundef 16)
  %3 = load i32, ptr %1, align 4
  call void @_ZN18GrowableArrayCHeapIhL8MEMFLAGS13EEC2Ei(ptr noundef nonnull align 8 dereferenceable(16) %2, i32 noundef %3)
  store ptr %2, ptr @_ZN17ArchiveHeapWriter7_bufferE, align 8
  store i64 0, ptr @_ZN17ArchiveHeapWriter12_buffer_usedE, align 8
  call void @_ZN17ArchiveHeapWriter19ensure_buffer_spaceEm(i64 noundef 1)
  ret void
}