; Function Attrs: mustprogress nounwind uwtable
define hidden void @_ZN17ArchiveHeapWriter15allocate_bufferEv() local_unnamed_addr #0 align 2 {
  %1 = tail call noundef ptr @_ZN6AnyObjnwEm8MEMFLAGS(i64 noundef 16, i8 noundef zeroext 13) #18
  %2 = tail call noundef ptr @_ZN27GrowableArrayCHeapAllocator8allocateEii8MEMFLAGS(i32 noundef 100000, i32 noundef 1, i8 noundef zeroext 13) #18
  store i32 0, ptr %1, align 4
  %3 = getelementptr inbounds i8, ptr %1, i64 4
  store i32 100000, ptr %3, align 4
  %4 = getelementptr inbounds i8, ptr %1, i64 8
  store ptr %2, ptr %4, align 8
  tail call void @llvm.memset.p0.i64(ptr noundef nonnull align 1 dereferenceable(100000) %2, i8 0, i64 100000, i1 false)
  store ptr %1, ptr @_ZN17ArchiveHeapWriter7_bufferE, align 8
  store i64 0, ptr @_ZN17ArchiveHeapWriter12_buffer_usedE, align 8
  %5 = load i32, ptr %1, align 8
  %.not.i = icmp sgt i32 %5, 1
  br i1 %.not.i, label %_ZN26GrowableArrayWithAllocatorIh18GrowableArrayCHeapIhL8MEMFLAGS13EEE7at_growEiRKh.exit, label %6

6:                                                ; preds = %0
  %7 = load i32, ptr %3, align 4
  %.not11.i = icmp sgt i32 %7, 1
  br i1 %.not11.i, label %.lr.ph.i, label %8

8:                                                ; preds = %6
  store i32 2, ptr %3, align 4
  %9 = tail call noundef ptr @_ZN27GrowableArrayCHeapAllocator8allocateEii8MEMFLAGS(i32 noundef 2, i32 noundef 1, i8 noundef zeroext 13) #18
  %.pre.i = load i32, ptr %1, align 8
  %10 = icmp sgt i32 %.pre.i, 0
  br i1 %10, label %.lr.ph.i.i.i, label %.preheader15.i.i.i

.preheader15.loopexit.i.i.i:                      ; preds = %.lr.ph.i.i.i
  %11 = trunc nuw nsw i64 %indvars.iv.next.i.i.i to i32
  br label %.preheader15.i.i.i

.preheader15.i.i.i:                               ; preds = %.preheader15.loopexit.i.i.i, %8
  %.0.lcssa.i.i.i = phi i32 [ 0, %8 ], [ %11, %.preheader15.loopexit.i.i.i ]
  %12 = load i32, ptr %3, align 4
  %13 = icmp slt i32 %.0.lcssa.i.i.i, %12
  br i1 %13, label %.lr.ph18.preheader.i.i.i, label %.preheader.i.i.i

.lr.ph18.preheader.i.i.i:                         ; preds = %.preheader15.i.i.i
  %14 = zext nneg i32 %.0.lcssa.i.i.i to i64
  br label %.lr.ph18.i.i.i

.lr.ph.i.i.i:                                     ; preds = %8, %.lr.ph.i.i.i
  %indvars.iv.i.i.i = phi i64 [ %indvars.iv.next.i.i.i, %.lr.ph.i.i.i ], [ 0, %8 ]
  %15 = getelementptr inbounds i8, ptr %9, i64 %indvars.iv.i.i.i
  %16 = load ptr, ptr %4, align 8
  %17 = getelementptr inbounds i8, ptr %16, i64 %indvars.iv.i.i.i
  %18 = load i8, ptr %17, align 1
  store i8 %18, ptr %15, align 1
  %indvars.iv.next.i.i.i = add nuw nsw i64 %indvars.iv.i.i.i, 1
  %19 = load i32, ptr %1, align 8
  %20 = sext i32 %19 to i64
  %21 = icmp slt i64 %indvars.iv.next.i.i.i, %20
  br i1 %21, label %.lr.ph.i.i.i, label %.preheader15.loopexit.i.i.i, !llvm.loop !9

.preheader.i.i.i:                                 ; preds = %.lr.ph18.i.i.i, %.preheader15.i.i.i
  %22 = load ptr, ptr %4, align 8
  %.not.i.i.i = icmp eq ptr %22, null
  br i1 %.not.i.i.i, label %28, label %27

.lr.ph18.i.i.i:                                   ; preds = %.lr.ph18.i.i.i, %.lr.ph18.preheader.i.i.i
  %indvars.iv20.i.i.i = phi i64 [ %14, %.lr.ph18.preheader.i.i.i ], [ %indvars.iv.next21.i.i.i, %.lr.ph18.i.i.i ]
  %23 = getelementptr inbounds i8, ptr %9, i64 %indvars.iv20.i.i.i
  store i8 0, ptr %23, align 1
  %indvars.iv.next21.i.i.i = add nuw nsw i64 %indvars.iv20.i.i.i, 1
  %24 = load i32, ptr %3, align 4
  %25 = trunc nuw i64 %indvars.iv.next21.i.i.i to i32
  %26 = icmp sgt i32 %24, %25
  br i1 %26, label %.lr.ph18.i.i.i, label %.preheader.i.i.i, !llvm.loop !10

27:                                               ; preds = %.preheader.i.i.i
  tail call void @_ZN27GrowableArrayCHeapAllocator10deallocateEPv(ptr noundef nonnull %22) #18
  br label %28

28:                                               ; preds = %.preheader.i.i.i, %27
  store ptr %9, ptr %4, align 8
  %.pre16.i = load i32, ptr %1, align 8
  %.not1213.i = icmp sgt i32 %.pre16.i, 1
  br i1 %.not1213.i, label %._crit_edge.i, label %.lr.ph.i

.lr.ph.i:                                         ; preds = %6, %28
  %29 = phi i32 [ %.pre16.i, %28 ], [ %5, %6 ]
  %30 = sext i32 %29 to i64
  br label %31

31:                                               ; preds = %31, %.lr.ph.i
  %indvars.iv.i = phi i64 [ %30, %.lr.ph.i ], [ %indvars.iv.next.i, %31 ]
  %32 = load ptr, ptr %4, align 8
  %33 = getelementptr inbounds i8, ptr %32, i64 %indvars.iv.i
  store i8 0, ptr %33, align 1
  %indvars.iv.next.i = add nsw i64 %indvars.iv.i, 1
  %34 = and i64 %indvars.iv.next.i, 4294967295
  %exitcond.not.i = icmp eq i64 %34, 2
  br i1 %exitcond.not.i, label %._crit_edge.i, label %31, !llvm.loop !11

._crit_edge.i:                                    ; preds = %31, %28
  store i32 2, ptr %1, align 8
  br label %_ZN26GrowableArrayWithAllocatorIh18GrowableArrayCHeapIhL8MEMFLAGS13EEE7at_growEiRKh.exit

_ZN26GrowableArrayWithAllocatorIh18GrowableArrayCHeapIhL8MEMFLAGS13EEE7at_growEiRKh.exit: ; preds = %0, %._crit_edge.i
  ret void
}